; Function Attrs: mustprogress nofree norecurse nosync nounwind memory(read, inaccessiblemem: write) uwtable
define dso_local noundef ptr @_ZNK5clang9ParentMap19getOuterParenParentEPNS_4StmtE(ptr noundef nonnull readonly align 8 captures(none) dereferenceable(8) %0, ptr noundef %1) local_unnamed_addr #6 align 2 {
  %3 = load i8, ptr %1, align 8
  %4 = icmp eq i8 %3, 21
  br i1 %4, label %.lr.ph, label %._crit_edge

.lr.ph:                                           ; preds = %2
  %5 = load ptr, ptr %0, align 8
  %6 = load ptr, ptr %5, align 8
  %7 = getelementptr inbounds nuw i8, ptr %5, i64 16
  %8 = load i32, ptr %7, align 8
  %9 = icmp ne i32 %8, 0
  %10 = add i32 %8, -1
  tail call void @llvm.assume(i1 %9)
  br label %.lr.ph.split

.lr.ph.split:                                     ; preds = %.lr.ph, %_ZNK4llvm12DenseMapBaseINS_8DenseMapIPN5clang4StmtES4_NS_12DenseMapInfoIS4_vEENS_6detail12DenseMapPairIS4_S4_EEEES4_S4_S6_S9_E6doFindIPKS3_EEPKS9_RKT_.exit.i.i
  %storemerge3 = phi ptr [ %30, %_ZNK4llvm12DenseMapBaseINS_8DenseMapIPN5clang4StmtES4_NS_12DenseMapInfoIS4_vEENS_6detail12DenseMapPairIS4_S4_EEEES4_S4_S6_S9_E6doFindIPKS3_EEPKS9_RKT_.exit.i.i ], [ %1, %.lr.ph ]
  %11 = ptrtoint ptr %storemerge3 to i64
  %12 = trunc i64 %11 to i32
  %13 = lshr i32 %12, 4
  %14 = lshr i32 %12, 9
  %15 = xor i32 %13, %14
  %.01618.i.i.i.i = and i32 %10, %15
  %16 = zext nneg i32 %.01618.i.i.i.i to i64
  %17 = getelementptr inbounds nuw %"struct.llvm::detail::DenseMapPair", ptr %6, i64 %16
  %18 = load ptr, ptr %17, align 8
  %19 = icmp eq ptr %storemerge3, %18
  br i1 %19, label %_ZNK4llvm12DenseMapBaseINS_8DenseMapIPN5clang4StmtES4_NS_12DenseMapInfoIS4_vEENS_6detail12DenseMapPairIS4_S4_EEEES4_S4_S6_S9_E6doFindIPKS3_EEPKS9_RKT_.exit.i.i, label %.lr.ph.i.i.i.i

.lr.ph.i.i.i.i:                                   ; preds = %.lr.ph.split, %.lr.ph.i.i.i.i
  %20 = phi ptr [ %26, %.lr.ph.i.i.i.i ], [ %18, %.lr.ph.split ]
  %.01620.i.i.i.i = phi i32 [ %.016.i.i.i.i, %.lr.ph.i.i.i.i ], [ %.01618.i.i.i.i, %.lr.ph.split ]
  %.01519.i.i.i.i = phi i32 [ %22, %.lr.ph.i.i.i.i ], [ 1, %.lr.ph.split ]
  %21 = icmp ne ptr %20, inttoptr (i64 -4096 to ptr)
  tail call void @llvm.assume(i1 %21)
  %22 = add i32 %.01519.i.i.i.i, 1
  %23 = add i32 %.01519.i.i.i.i, %.01620.i.i.i.i
  %.016.i.i.i.i = and i32 %23, %10
  %24 = zext i32 %.016.i.i.i.i to i64
  %25 = getelementptr inbounds nuw %"struct.llvm::detail::DenseMapPair", ptr %6, i64 %24
  %26 = load ptr, ptr %25, align 8
  %27 = icmp eq ptr %storemerge3, %26
  br i1 %27, label %_ZNK4llvm12DenseMapBaseINS_8DenseMapIPN5clang4StmtES4_NS_12DenseMapInfoIS4_vEENS_6detail12DenseMapPairIS4_S4_EEEES4_S4_S6_S9_E6doFindIPKS3_EEPKS9_RKT_.exit.i.i, label %.lr.ph.i.i.i.i, !llvm.loop !12

_ZNK4llvm12DenseMapBaseINS_8DenseMapIPN5clang4StmtES4_NS_12DenseMapInfoIS4_vEENS_6detail12DenseMapPairIS4_S4_EEEES4_S4_S6_S9_E6doFindIPKS3_EEPKS9_RKT_.exit.i.i: ; preds = %.lr.ph.i.i.i.i, %.lr.ph.split
  %28 = phi i64 [ %16, %.lr.ph.split ], [ %24, %.lr.ph.i.i.i.i ]
  %29 = getelementptr inbounds nuw %"struct.llvm::detail::DenseMapPair", ptr %6, i64 %28, i32 0, i32 1
  %30 = load ptr, ptr %29, align 8
  %31 = load i8, ptr %30, align 8
  %32 = icmp eq i8 %31, 21
  br i1 %32, label %.lr.ph.split, label %._crit_edge, !llvm.loop !16

._crit_edge:                                      ; preds = %_ZNK4llvm12DenseMapBaseINS_8DenseMapIPN5clang4StmtES4_NS_12DenseMapInfoIS4_vEENS_6detail12DenseMapPairIS4_S4_EEEES4_S4_S6_S9_E6doFindIPKS3_EEPKS9_RKT_.exit.i.i, %2
  %.0.lcssa = phi ptr [ null, %2 ], [ %storemerge3, %_ZNK4llvm12DenseMapBaseINS_8DenseMapIPN5clang4StmtES4_NS_12DenseMapInfoIS4_vEENS_6detail12DenseMapPairIS4_S4_EEEES4_S4_S6_S9_E6doFindIPKS3_EEPKS9_RKT_.exit.i.i ]
  ret ptr %.0.lcssa
}